target datalayout = "e-m:e-p270:32:32-p271:32:32-p272:64:64-i64:64-i128:128-f80:128-n8:16:32:64-S128"
target triple = "x86_64-pc-linux-gnu"

%struct.GetBitContext = type { ptr, ptr, i32, i32, i32 }
%struct.CodedBitstreamContext = type { ptr, ptr, ptr, ptr, i32, i32, i32, ptr, ptr, ptr, ptr, i64 }

@.str.8 = private unnamed_addr constant [30 x i8] c"Assertion %s failed at %s:%d\0A\00", align 1
@.str.10 = private unnamed_addr constant [21 x i8] c"libavcodec/cbs_av1.c\00", align 1
@.str.27 = private unnamed_addr constant [40 x i8] c"Invalid leb128 at %s: bitstream ended.\0A\00", align 1
@.str.28 = private unnamed_addr constant [31 x i8] c"start_position <= end_position\00", align 1

; Function Attrs: alwaysinline nounwind willreturn memory(none) uwtable
define internal i32 @av_bswap32(i32 noundef %0) #6 {
  %2 = alloca i32, align 4
  store i32 %0, ptr %2, align 4, !tbaa !11
  %3 = load i32, ptr %2, align 4, !tbaa !11
  %4 = shl i32 %3, 8
  %5 = and i32 %4, 65280
  %6 = load i32, ptr %2, align 4, !tbaa !11
  %7 = lshr i32 %6, 8
  %8 = and i32 %7, 255
  %9 = or i32 %5, %8
  %10 = shl i32 %9, 16
  %11 = load i32, ptr %2, align 4, !tbaa !11
  %12 = lshr i32 %11, 16
  %13 = shl i32 %12, 8
  %14 = and i32 %13, 65280
  %15 = load i32, ptr %2, align 4, !tbaa !11
  %16 = lshr i32 %15, 16
  %17 = lshr i32 %16, 8
  %18 = and i32 %17, 255
  %19 = or i32 %14, %18
  %20 = or i32 %10, %19
  ret i32 %20
}

; Function Attrs: inlinehint nounwind uwtable
define internal i32 @get_bits_count(ptr noundef %0) #4 {
  %2 = alloca ptr, align 8
  store ptr %0, ptr %2, align 8, !tbaa !103
  %3 = load ptr, ptr %2, align 8, !tbaa !103
  %4 = getelementptr inbounds nuw %struct.GetBitContext, ptr %3, i32 0, i32 2
  %5 = load i32, ptr %4, align 8, !tbaa !110
  ret i32 %5
}

; Function Attrs: inlinehint nounwind uwtable
define internal i32 @get_bits(ptr noundef %0, i32 noundef %1) #4 {
  %3 = alloca ptr, align 8
  %4 = alloca i32, align 4
  %5 = alloca i32, align 4
  %6 = alloca i32, align 4
  %7 = alloca i32, align 4
  %8 = alloca i32, align 4
  store ptr %0, ptr %3, align 8, !tbaa !103
  store i32 %1, ptr %4, align 4, !tbaa !11
  call void @llvm.lifetime.start.p0(i64 4, ptr %5) #8
  call void @llvm.lifetime.start.p0(i64 4, ptr %6) #8
  %9 = load ptr, ptr %3, align 8, !tbaa !103
  %10 = getelementptr inbounds nuw %struct.GetBitContext, ptr %9, i32 0, i32 2
  %11 = load i32, ptr %10, align 8, !tbaa !110
  store i32 %11, ptr %6, align 4, !tbaa !11
  call void @llvm.lifetime.start.p0(i64 4, ptr %7) #8
  call void @llvm.lifetime.start.p0(i64 4, ptr %8) #8
  %12 = load ptr, ptr %3, align 8, !tbaa !103
  %13 = getelementptr inbounds nuw %struct.GetBitContext, ptr %12, i32 0, i32 4
  %14 = load i32, ptr %13, align 8, !tbaa !108
  store i32 %14, ptr %8, align 4, !tbaa !11
  %15 = load ptr, ptr %3, align 8, !tbaa !103
  %16 = getelementptr inbounds nuw %struct.GetBitContext, ptr %15, i32 0, i32 0
  %17 = load ptr, ptr %16, align 8, !tbaa !105
  %18 = load i32, ptr %6, align 4, !tbaa !11
  %19 = lshr i32 %18, 3
  %20 = zext i32 %19 to i64
  %21 = getelementptr inbounds nuw i8, ptr %17, i64 %20
  %22 = load i32, ptr %21, align 1, !tbaa !27
  %23 = call i32 @av_bswap32(i32 noundef %22) #10
  %24 = load i32, ptr %6, align 4, !tbaa !11
  %25 = and i32 %24, 7
  %26 = shl i32 %23, %25
  %27 = lshr i32 %26, 0
  store i32 %27, ptr %7, align 4, !tbaa !11
  %28 = load i32, ptr %7, align 4, !tbaa !11
  %29 = load i32, ptr %4, align 4, !tbaa !11
  %30 = sub nsw i32 32, %29
  %31 = lshr i32 %28, %30
  store i32 %31, ptr %5, align 4, !tbaa !11
  %32 = load i32, ptr %8, align 4, !tbaa !11
  %33 = load i32, ptr %6, align 4, !tbaa !11
  %34 = load i32, ptr %4, align 4, !tbaa !11
  %35 = add i32 %33, %34
  %36 = icmp ugt i32 %32, %35
  br i1 %36, label %37, label %41

37:                                               ; preds = %2
  %38 = load i32, ptr %6, align 4, !tbaa !11
  %39 = load i32, ptr %4, align 4, !tbaa !11
  %40 = add i32 %38, %39
  br label %43

41:                                               ; preds = %2
  %42 = load i32, ptr %8, align 4, !tbaa !11
  br label %43

43:                                               ; preds = %41, %37
  %44 = phi i32 [ %40, %37 ], [ %42, %41 ]
  store i32 %44, ptr %6, align 4, !tbaa !11
  %45 = load i32, ptr %6, align 4, !tbaa !11
  %46 = load ptr, ptr %3, align 8, !tbaa !103
  %47 = getelementptr inbounds nuw %struct.GetBitContext, ptr %46, i32 0, i32 2
  store i32 %45, ptr %47, align 8, !tbaa !110
  %48 = load i32, ptr %5, align 4, !tbaa !11
  call void @llvm.lifetime.end.p0(i64 4, ptr %8) #8
  call void @llvm.lifetime.end.p0(i64 4, ptr %7) #8
  call void @llvm.lifetime.end.p0(i64 4, ptr %6) #8
  call void @llvm.lifetime.end.p0(i64 4, ptr %5) #8
  ret i32 %48
}

; Function Attrs: inlinehint nounwind uwtable
define internal i32 @get_bits_left(ptr noundef %0) #4 {
  %2 = alloca ptr, align 8
  store ptr %0, ptr %2, align 8, !tbaa !103
  %3 = load ptr, ptr %2, align 8, !tbaa !103
  %4 = getelementptr inbounds nuw %struct.GetBitContext, ptr %3, i32 0, i32 3
  %5 = load i32, ptr %4, align 4, !tbaa !107
  %6 = load ptr, ptr %2, align 8, !tbaa !103
  %7 = call i32 @get_bits_count(ptr noundef %6)
  %8 = sub nsw i32 %5, %7
  ret i32 %8
}

; Function Attrs: nounwind uwtable
define internal i32 @cbs_av1_read_leb128(ptr noundef %0, ptr noundef %1, ptr noundef %2, ptr noundef %3) #0 {
  %5 = alloca i32, align 4
  %6 = alloca ptr, align 8
  %7 = alloca ptr, align 8
  %8 = alloca ptr, align 8
  %9 = alloca ptr, align 8
  %10 = alloca i64, align 8
  %11 = alloca i32, align 4
  %12 = alloca i32, align 4
  %13 = alloca %struct.GetBitContext, align 8
  %14 = alloca i32, align 4
  %15 = alloca ptr, align 8
  %16 = alloca i32, align 4
  %17 = alloca i32, align 4
  store ptr %0, ptr %6, align 8, !tbaa !4
  store ptr %1, ptr %7, align 8, !tbaa !103
  store ptr %2, ptr %8, align 8, !tbaa !23
  store ptr %3, ptr %9, align 8, !tbaa !118
  call void @llvm.lifetime.start.p0(i64 8, ptr %10) #8
  call void @llvm.lifetime.start.p0(i64 4, ptr %11) #8
  call void @llvm.lifetime.start.p0(i64 4, ptr %12) #8
  call void @llvm.lifetime.start.p0(i64 32, ptr %13) #8
  br label %18

18:                                               ; preds = %4
  %19 = load ptr, ptr %6, align 8, !tbaa !4
  %20 = getelementptr inbounds nuw %struct.CodedBitstreamContext, ptr %19, i32 0, i32 5
  %21 = load i32, ptr %20, align 4, !tbaa !13
  %22 = icmp ne i32 %21, 0
  br i1 %22, label %23, label %25

23:                                               ; preds = %18
  %24 = load ptr, ptr %7, align 8, !tbaa !103
  call void @llvm.memcpy.p0.p0.i64(ptr align 8 %13, ptr align 8 %24, i64 32, i1 false), !tbaa.struct !120
  br label %25

25:                                               ; preds = %23, %18
  br label %26

26:                                               ; preds = %25
  br label %27

27:                                               ; preds = %26
  store i64 0, ptr %10, align 8, !tbaa !25
  store i32 0, ptr %12, align 4, !tbaa !11
  br label %28

28:                                               ; preds = %57, %27
  %29 = load i32, ptr %12, align 4, !tbaa !11
  %30 = icmp slt i32 %29, 8
  br i1 %30, label %31, label %60

31:                                               ; preds = %28
  %32 = load ptr, ptr %7, align 8, !tbaa !103
  %33 = call i32 @get_bits_left(ptr noundef %32)
  %34 = icmp slt i32 %33, 8
  br i1 %34, label %35, label %40

35:                                               ; preds = %31
  %36 = load ptr, ptr %6, align 8, !tbaa !4
  %37 = getelementptr inbounds nuw %struct.CodedBitstreamContext, ptr %36, i32 0, i32 0
  %38 = load ptr, ptr %37, align 8, !tbaa !26
  %39 = load ptr, ptr %8, align 8, !tbaa !23
  call void (ptr, i32, ptr, ...) @av_log(ptr noundef %38, i32 noundef 16, ptr noundef @.str.27, ptr noundef %39)
  store i32 -1094995529, ptr %5, align 4
  store i32 1, ptr %14, align 4
  br label %102

40:                                               ; preds = %31
  %41 = load ptr, ptr %7, align 8, !tbaa !103
  %42 = call i32 @get_bits(ptr noundef %41, i32 noundef 8)
  store i32 %42, ptr %11, align 4, !tbaa !11
  %43 = load i32, ptr %11, align 4, !tbaa !11
  %44 = and i32 %43, 127
  %45 = zext i32 %44 to i64
  %46 = load i32, ptr %12, align 4, !tbaa !11
  %47 = mul nsw i32 %46, 7
  %48 = zext i32 %47 to i64
  %49 = shl i64 %45, %48
  %50 = load i64, ptr %10, align 8, !tbaa !25
  %51 = or i64 %50, %49
  store i64 %51, ptr %10, align 8, !tbaa !25
  %52 = load i32, ptr %11, align 4, !tbaa !11
  %53 = and i32 %52, 128
  %54 = icmp ne i32 %53, 0
  br i1 %54, label %56, label %55

55:                                               ; preds = %40
  br label %60

56:                                               ; preds = %40
  br label %57

57:                                               ; preds = %56
  %58 = load i32, ptr %12, align 4, !tbaa !11
  %59 = add nsw i32 %58, 1
  store i32 %59, ptr %12, align 4, !tbaa !11
  br label %28, !llvm.loop !121

60:                                               ; preds = %55, %28
  %61 = load i64, ptr %10, align 8, !tbaa !25
  %62 = icmp ugt i64 %61, 4294967295
  br i1 %62, label %63, label %64

63:                                               ; preds = %60
  store i32 -1094995529, ptr %5, align 4
  store i32 1, ptr %14, align 4
  br label %102

64:                                               ; preds = %60
  br label %65

65:                                               ; preds = %64
  call void @llvm.lifetime.start.p0(i64 8, ptr %15) #8
  store ptr null, ptr %15, align 8, !tbaa !122
  br label %66

66:                                               ; preds = %65
  %67 = load ptr, ptr %6, align 8, !tbaa !4
  %68 = getelementptr inbounds nuw %struct.CodedBitstreamContext, ptr %67, i32 0, i32 5
  %69 = load i32, ptr %68, align 4, !tbaa !13
  %70 = icmp ne i32 %69, 0
  br i1 %70, label %71, label %95

71:                                               ; preds = %66
  call void @llvm.lifetime.start.p0(i64 4, ptr %16) #8
  %72 = call i32 @get_bits_count(ptr noundef %13)
  store i32 %72, ptr %16, align 4, !tbaa !11
  call void @llvm.lifetime.start.p0(i64 4, ptr %17) #8
  %73 = load ptr, ptr %7, align 8, !tbaa !103
  %74 = call i32 @get_bits_count(ptr noundef %73)
  store i32 %74, ptr %17, align 4, !tbaa !11
  br label %75

75:                                               ; preds = %71
  %76 = load i32, ptr %16, align 4, !tbaa !11
  %77 = load i32, ptr %17, align 4, !tbaa !11
  %78 = icmp sle i32 %76, %77
  br i1 %78, label %80, label %79

79:                                               ; preds = %75
  call void (ptr, i32, ptr, ...) @av_log(ptr noundef null, i32 noundef 0, ptr noundef @.str.8, ptr noundef @.str.28, ptr noundef @.str.10, i32 noundef 149)
  call void @abort() #9
  unreachable

80:                                               ; preds = %75
  br label %81

81:                                               ; preds = %80
  br label %82

82:                                               ; preds = %81
  %83 = load ptr, ptr %6, align 8, !tbaa !4
  %84 = getelementptr inbounds nuw %struct.CodedBitstreamContext, ptr %83, i32 0, i32 8
  %85 = load ptr, ptr %84, align 8, !tbaa !123
  %86 = load ptr, ptr %6, align 8, !tbaa !4
  %87 = getelementptr inbounds nuw %struct.CodedBitstreamContext, ptr %86, i32 0, i32 7
  %88 = load ptr, ptr %87, align 8, !tbaa !124
  %89 = load i32, ptr %17, align 4, !tbaa !11
  %90 = load i32, ptr %16, align 4, !tbaa !11
  %91 = sub nsw i32 %89, %90
  %92 = load ptr, ptr %8, align 8, !tbaa !23
  %93 = load ptr, ptr %15, align 8, !tbaa !122
  %94 = load i64, ptr %10, align 8, !tbaa !25
  call void %85(ptr noundef %88, ptr noundef %13, i32 noundef %91, ptr noundef %92, ptr noundef %93, i64 noundef %94)
  call void @llvm.lifetime.end.p0(i64 4, ptr %17) #8
  call void @llvm.lifetime.end.p0(i64 4, ptr %16) #8
  br label %95

95:                                               ; preds = %82, %66
  br label %96

96:                                               ; preds = %95
  br label %97

97:                                               ; preds = %96
  call void @llvm.lifetime.end.p0(i64 8, ptr %15) #8
  br label %98

98:                                               ; preds = %97
  br label %99

99:                                               ; preds = %98
  %100 = load i64, ptr %10, align 8, !tbaa !25
  %101 = load ptr, ptr %9, align 8, !tbaa !118
  store i64 %100, ptr %101, align 8, !tbaa !25
  store i32 0, ptr %5, align 4
  store i32 1, ptr %14, align 4
  br label %102

102:                                              ; preds = %99, %63, %35
  call void @llvm.lifetime.end.p0(i64 32, ptr %13) #8
  call void @llvm.lifetime.end.p0(i64 4, ptr %12) #8
  call void @llvm.lifetime.end.p0(i64 4, ptr %11) #8
  call void @llvm.lifetime.end.p0(i64 8, ptr %10) #8
  %103 = load i32, ptr %5, align 4
  ret i32 %103
}