; Function Attrs: nounwind uwtable
define internal fastcc range(i32 -1094995529, 1) i32 @cbs_av1_read_leb128(ptr noundef readonly captures(none) %0, ptr noundef nonnull captures(none) %1, ptr noundef %2, ptr noundef nonnull writeonly captures(none) %3) unnamed_addr #0 {
  %5 = alloca %struct.GetBitContext, align 8
  call void @llvm.lifetime.start.p0(i64 32, ptr nonnull %5) #8
  %6 = getelementptr inbounds nuw i8, ptr %0, i64 36
  %7 = load i32, ptr %6, align 4, !tbaa !4
  %.not = icmp eq i32 %7, 0
  br i1 %.not, label %9, label %8

8:                                                ; preds = %4
  call void @llvm.memcpy.p0.p0.i64(ptr noundef nonnull align 8 dereferenceable(32) %5, ptr noundef nonnull align 8 dereferenceable(32) %1, i64 32, i1 false), !tbaa.struct !204
  br label %9

9:                                                ; preds = %8, %4
  %10 = getelementptr i8, ptr %1, i64 16
  %11 = getelementptr i8, ptr %1, i64 20
  %.val35 = load i32, ptr %11, align 4, !tbaa !23
  %12 = getelementptr inbounds nuw i8, ptr %1, i64 24
  %.promoted = load i32, ptr %10, align 8, !tbaa !26
  br label %13

13:                                               ; preds = %19, %9
  %indvars.iv = phi i64 [ 0, %9 ], [ %indvars.iv.next, %19 ]
  %14 = phi i32 [ %.promoted, %9 ], [ %31, %19 ]
  %.02637 = phi i64 [ 0, %9 ], [ %36, %19 ]
  %15 = sub nsw i32 %.val35, %14
  %16 = icmp slt i32 %15, 8
  br i1 %16, label %17, label %19

17:                                               ; preds = %13
  %18 = load ptr, ptr %0, align 8, !tbaa !19
  tail call void (ptr, i32, ptr, ...) @av_log(ptr noundef %18, i32 noundef 16, ptr noundef nonnull @.str.27, ptr noundef %2) #8
  br label %50

19:                                               ; preds = %13
  %20 = load i32, ptr %12, align 8, !tbaa !24
  %21 = load ptr, ptr %1, align 8, !tbaa !21
  %22 = lshr i32 %14, 3
  %23 = zext nneg i32 %22 to i64
  %24 = getelementptr inbounds nuw i8, ptr %21, i64 %23
  %25 = load i32, ptr %24, align 1, !tbaa !20
  %26 = tail call i32 @llvm.bswap.i32(i32 %25)
  %27 = and i32 %14, 7
  %28 = shl i32 %26, %27
  %29 = lshr i32 %28, 24
  %30 = add i32 %14, 8
  %31 = tail call i32 @llvm.umin.i32(i32 %20, i32 %30)
  store i32 %31, ptr %10, align 8, !tbaa !26
  %32 = and i32 %29, 127
  %33 = zext nneg i32 %32 to i64
  %34 = mul nuw nsw i64 %indvars.iv, 7
  %35 = shl nuw nsw i64 %33, %34
  %36 = or i64 %35, %.02637
  %.not30 = icmp sgt i32 %28, -1
  %indvars.iv.next = add nuw nsw i64 %indvars.iv, 1
  %exitcond.not = icmp eq i64 %indvars.iv.next, 8
  %or.cond = select i1 %.not30, i1 true, i1 %exitcond.not
  br i1 %or.cond, label %37, label %13, !llvm.loop !205

37:                                               ; preds = %19
  %38 = icmp ugt i64 %36, 4294967295
  br i1 %38, label %50, label %39

39:                                               ; preds = %37
  br i1 %.not, label %49, label %40

40:                                               ; preds = %39
  %41 = getelementptr inbounds nuw i8, ptr %5, i64 16
  %.val = load i32, ptr %41, align 8, !tbaa !26
  %.not32 = icmp sgt i32 %.val, %31
  br i1 %.not32, label %42, label %43

42:                                               ; preds = %40
  tail call void (ptr, i32, ptr, ...) @av_log(ptr noundef null, i32 noundef 0, ptr noundef nonnull @.str.8, ptr noundef nonnull @.str.28, ptr noundef nonnull @.str.10, i32 noundef 149) #8
  tail call void @abort() #9
  unreachable

43:                                               ; preds = %40
  %44 = getelementptr inbounds nuw i8, ptr %0, i64 56
  %45 = load ptr, ptr %44, align 8, !tbaa !206
  %46 = getelementptr inbounds nuw i8, ptr %0, i64 48
  %47 = load ptr, ptr %46, align 8, !tbaa !98
  %48 = sub nsw i32 %31, %.val
  call void %45(ptr noundef %47, ptr noundef nonnull %5, i32 noundef %48, ptr noundef %2, ptr noundef null, i64 noundef %36) #8
  br label %49

49:                                               ; preds = %43, %39
  store i64 %36, ptr %3, align 8, !tbaa !30
  br label %50

50:                                               ; preds = %37, %49, %17
  %.0 = phi i32 [ -1094995529, %17 ], [ 0, %49 ], [ -1094995529, %37 ]
  call void @llvm.lifetime.end.p0(i64 32, ptr nonnull %5) #8
  ret i32 %.0
}